; Function Attrs: mustprogress nofree norecurse nosync nounwind willreturn memory(read, inaccessiblemem: none) uwtable
define noundef i32 @_ZNK10open_spiel9blackjack14BlackjackState18GetBestPlayerTotalEi(ptr nocapture noundef nonnull readonly align 8 dereferenceable(200) %0, i32 noundef %1) local_unnamed_addr #7 align 2 {
  %3 = getelementptr inbounds nuw i8, ptr %0, i64 80
  %4 = sext i32 %1 to i64
  %5 = load ptr, ptr %3, align 8
  %6 = getelementptr inbounds i32, ptr %5, i64 %4
  %7 = load i32, ptr %6, align 4
  %8 = getelementptr inbounds nuw i8, ptr %0, i64 104
  %9 = load ptr, ptr %8, align 8
  %10 = getelementptr inbounds i32, ptr %9, i64 %4
  %11 = load i32, ptr %10, align 4
  %12 = add nsw i32 %11, %7
  %.not14 = icmp slt i32 %11, 1
  br i1 %.not14, label %._crit_edge, label %.lr.ph

.lr.ph:                                           ; preds = %2, %.lr.ph
  %.016 = phi i32 [ %18, %.lr.ph ], [ 1, %2 ]
  %.01315 = phi i32 [ %.1, %.lr.ph ], [ %12, %2 ]
  %13 = mul nuw nsw i32 %.016, 11
  %14 = add nsw i32 %13, %7
  %15 = sub nsw i32 %11, %.016
  %16 = add nsw i32 %14, %15
  %17 = icmp slt i32 %16, 22
  %.sroa.speculated = tail call i32 @llvm.smax.i32(i32 %.01315, i32 %16)
  %.1 = select i1 %17, i32 %.sroa.speculated, i32 %.01315
  %18 = add nuw i32 %.016, 1
  %exitcond.not = icmp eq i32 %.016, %11
  br i1 %exitcond.not, label %._crit_edge, label %.lr.ph, !llvm.loop !7

._crit_edge:                                      ; preds = %.lr.ph, %2
  %.013.lcssa = phi i32 [ %12, %2 ], [ %.1, %.lr.ph ]
  ret i32 %.013.lcssa
}